; Function Attrs: nounwind uwtable
define void @Java_sun_nio_fs_UnixNativeDispatcher_chmod0(ptr noundef %0, ptr nocapture noundef readnone %1, i64 noundef %2, i32 noundef %3) local_unnamed_addr #0 {
  %5 = inttoptr i64 %2 to ptr
  br label %6

6:                                                ; preds = %9, %4
  %7 = tail call i32 @chmod(ptr noundef %5, i32 noundef %3) #11
  %8 = icmp eq i32 %7, -1
  br i1 %8, label %9, label %.critedge5

9:                                                ; preds = %6
  %10 = tail call ptr @__errno_location() #12
  %11 = load i32, ptr %10, align 4
  %12 = icmp eq i32 %11, 4
  br i1 %12, label %6, label %.critedge, !llvm.loop !36

.critedge:                                        ; preds = %9
  %13 = tail call ptr (ptr, ptr, ptr, ...) @JNU_NewObjectByName(ptr noundef %0, ptr noundef nonnull @.str.46, ptr noundef nonnull @.str.47, i32 noundef %11) #11
  %.not.i = icmp eq ptr %13, null
  br i1 %.not.i, label %.critedge5, label %14

14:                                               ; preds = %.critedge
  %15 = load ptr, ptr %0, align 8
  %16 = getelementptr inbounds i8, ptr %15, i64 104
  %17 = load ptr, ptr %16, align 8
  %18 = tail call i32 %17(ptr noundef nonnull %0, ptr noundef nonnull %13) #11
  br label %.critedge5

.critedge5:                                       ; preds = %6, %14, %.critedge
  ret void
}